target datalayout = "e-m:e-p270:32:32-p271:32:32-p272:64:64-i64:64-i128:128-f80:128-n8:16:32:64-S128"
target triple = "x86_64-pc-linux-gnu"

; Function Attrs: null_pointer_is_valid sspstrong uwtable
define internal zeroext i1 @dissect_teredo_heur(ptr noundef %0, ptr noundef %1, ptr noundef %2, ptr noundef %3) #0 {
  %5 = alloca i1, align 1
  %6 = alloca ptr, align 8
  %7 = alloca ptr, align 8
  %8 = alloca ptr, align 8
  %9 = alloca ptr, align 8
  %10 = alloca i16, align 2
  %11 = alloca i32, align 4
  %12 = alloca i32, align 4
  %13 = alloca i8, align 1
  %14 = alloca i8, align 1
  store ptr %0, ptr %6, align 8
  store ptr %1, ptr %7, align 8
  store ptr %2, ptr %8, align 8
  store ptr %3, ptr %9, align 8
  call void @llvm.lifetime.start.p0(i64 2, ptr %10) #3
  call void @llvm.lifetime.start.p0(i64 4, ptr %11) #3
  store i32 0, ptr %11, align 4
  %15 = load ptr, ptr %6, align 8
  %16 = load i32, ptr %11, align 4
  %17 = call i32 @tvb_captured_length_remaining(ptr noundef %15, i32 noundef %16)
  %18 = icmp slt i32 %17, 40
  br i1 %18, label %19, label %20

19:                                               ; preds = %4
  store i1 false, ptr %5, align 1
  store i32 1, ptr %12, align 4
  br label %112

20:                                               ; preds = %4
  %21 = load ptr, ptr %6, align 8
  %22 = load i32, ptr %11, align 4
  %23 = call zeroext i16 @tvb_get_ntohs(ptr noundef %21, i32 noundef %22)
  store i16 %23, ptr %10, align 2
  %24 = load i16, ptr %10, align 2
  %25 = zext i16 %24 to i32
  %26 = icmp eq i32 %25, 1
  br i1 %26, label %27, label %65

27:                                               ; preds = %20
  call void @llvm.lifetime.start.p0(i64 1, ptr %13) #3
  call void @llvm.lifetime.start.p0(i64 1, ptr %14) #3
  %28 = load i32, ptr %11, align 4
  %29 = add i32 %28, 2
  store i32 %29, ptr %11, align 4
  %30 = load ptr, ptr %6, align 8
  %31 = load i32, ptr %11, align 4
  %32 = call zeroext i8 @tvb_get_uint8(ptr noundef %30, i32 noundef %31)
  store i8 %32, ptr %13, align 1
  %33 = load i32, ptr %11, align 4
  %34 = add i32 %33, 1
  store i32 %34, ptr %11, align 4
  %35 = load ptr, ptr %6, align 8
  %36 = load i32, ptr %11, align 4
  %37 = call zeroext i8 @tvb_get_uint8(ptr noundef %35, i32 noundef %36)
  store i8 %37, ptr %14, align 1
  %38 = load i32, ptr %11, align 4
  %39 = add i32 %38, 10
  store i32 %39, ptr %11, align 4
  %40 = load ptr, ptr %6, align 8
  %41 = load i32, ptr %11, align 4
  %42 = call i32 @tvb_captured_length_remaining(ptr noundef %40, i32 noundef %41)
  %43 = load i8, ptr %13, align 1
  %44 = zext i8 %43 to i32
  %45 = load i8, ptr %14, align 1
  %46 = zext i8 %45 to i32
  %47 = add i32 %44, %46
  %48 = add i32 %47, 40
  %49 = icmp slt i32 %42, %48
  br i1 %49, label %50, label %51

50:                                               ; preds = %27
  store i1 false, ptr %5, align 1
  store i32 1, ptr %12, align 4
  br label %62

51:                                               ; preds = %27
  %52 = load i8, ptr %13, align 1
  %53 = zext i8 %52 to i32
  %54 = load i8, ptr %14, align 1
  %55 = zext i8 %54 to i32
  %56 = add i32 %53, %55
  %57 = load i32, ptr %11, align 4
  %58 = add i32 %57, %56
  store i32 %58, ptr %11, align 4
  %59 = load ptr, ptr %6, align 8
  %60 = load i32, ptr %11, align 4
  %61 = call zeroext i16 @tvb_get_ntohs(ptr noundef %59, i32 noundef %60)
  store i16 %61, ptr %10, align 2
  store i32 0, ptr %12, align 4
  br label %62

62:                                               ; preds = %51, %50
  call void @llvm.lifetime.end.p0(i64 1, ptr %14) #3
  call void @llvm.lifetime.end.p0(i64 1, ptr %13) #3
  %63 = load i32, ptr %12, align 4
  switch i32 %63, label %112 [
    i32 0, label %64
  ]

64:                                               ; preds = %62
  br label %65

65:                                               ; preds = %64, %20
  %66 = load i16, ptr %10, align 2
  %67 = zext i16 %66 to i32
  %68 = icmp eq i32 %67, 0
  br i1 %68, label %69, label %81

69:                                               ; preds = %65
  %70 = load i32, ptr %11, align 4
  %71 = add i32 %70, 8
  store i32 %71, ptr %11, align 4
  %72 = load ptr, ptr %6, align 8
  %73 = load i32, ptr %11, align 4
  %74 = call i32 @tvb_captured_length_remaining(ptr noundef %72, i32 noundef %73)
  %75 = icmp slt i32 %74, 40
  br i1 %75, label %76, label %77

76:                                               ; preds = %69
  store i1 false, ptr %5, align 1
  store i32 1, ptr %12, align 4
  br label %112

77:                                               ; preds = %69
  %78 = load ptr, ptr %6, align 8
  %79 = load i32, ptr %11, align 4
  %80 = call zeroext i16 @tvb_get_ntohs(ptr noundef %78, i32 noundef %79)
  store i16 %80, ptr %10, align 2
  br label %81

81:                                               ; preds = %77, %65
  %82 = load i16, ptr %10, align 2
  %83 = zext i16 %82 to i32
  %84 = ashr i32 %83, 12
  %85 = icmp eq i32 %84, 6
  br i1 %85, label %86, label %111

86:                                               ; preds = %81
  %87 = load ptr, ptr %6, align 8
  %88 = load i32, ptr %11, align 4
  %89 = add i32 %88, 4
  %90 = call zeroext i16 @tvb_get_ntohs(ptr noundef %87, i32 noundef %89)
  store i16 %90, ptr %10, align 2
  %91 = load i32, ptr %11, align 4
  %92 = add i32 %91, 40
  store i32 %92, ptr %11, align 4
  %93 = load i16, ptr %10, align 2
  %94 = zext i16 %93 to i32
  %95 = icmp sgt i32 %94, 65467
  br i1 %95, label %96, label %97

96:                                               ; preds = %86
  store i1 false, ptr %5, align 1
  store i32 1, ptr %12, align 4
  br label %112

97:                                               ; preds = %86
  %98 = load ptr, ptr %6, align 8
  %99 = load i32, ptr %11, align 4
  %100 = call i32 @tvb_reported_length_remaining(ptr noundef %98, i32 noundef %99)
  %101 = load i16, ptr %10, align 2
  %102 = zext i16 %101 to i32
  %103 = icmp ne i32 %100, %102
  br i1 %103, label %104, label %105

104:                                              ; preds = %97
  store i1 false, ptr %5, align 1
  store i32 1, ptr %12, align 4
  br label %112

105:                                              ; preds = %97
  %106 = load ptr, ptr %6, align 8
  %107 = load ptr, ptr %7, align 8
  %108 = load ptr, ptr %8, align 8
  %109 = load ptr, ptr %9, align 8
  %110 = call i32 @dissect_teredo(ptr noundef %106, ptr noundef %107, ptr noundef %108, ptr noundef %109)
  store i1 true, ptr %5, align 1
  store i32 1, ptr %12, align 4
  br label %112

111:                                              ; preds = %81
  store i1 false, ptr %5, align 1
  store i32 1, ptr %12, align 4
  br label %112

112:                                              ; preds = %111, %105, %104, %96, %76, %62, %19
  call void @llvm.lifetime.end.p0(i64 4, ptr %11) #3
  call void @llvm.lifetime.end.p0(i64 2, ptr %10) #3
  %113 = load i1, ptr %5, align 1
  ret i1 %113
}