; Function Attrs: null_pointer_is_valid sspstrong uwtable
define internal noundef zeroext i1 @dissect_teredo_heur(ptr noundef %0, ptr noundef %1, ptr noundef %2, ptr readnone captures(none) %3) #0 {
  %5 = tail call i32 @tvb_captured_length_remaining(ptr noundef %0, i32 noundef 0)
  %6 = icmp slt i32 %5, 40
  br i1 %6, label %.thread, label %7

7:                                                ; preds = %4
  %8 = tail call zeroext i16 @tvb_get_ntohs(ptr noundef %0, i32 noundef 0)
  %9 = icmp eq i16 %8, 1
  br i1 %9, label %10, label %21

10:                                               ; preds = %7
  %11 = tail call zeroext i8 @tvb_get_uint8(ptr noundef %0, i32 noundef 2)
  %12 = tail call zeroext i8 @tvb_get_uint8(ptr noundef %0, i32 noundef 3)
  %13 = tail call i32 @tvb_captured_length_remaining(ptr noundef %0, i32 noundef 13)
  %14 = zext i8 %11 to i32
  %15 = zext i8 %12 to i32
  %16 = add nuw nsw i32 %15, %14
  %17 = add nuw nsw i32 %16, 40
  %.not = icmp slt i32 %13, %17
  br i1 %.not, label %.thread, label %18

18:                                               ; preds = %10
  %19 = add nuw nsw i32 %16, 13
  %20 = tail call zeroext i16 @tvb_get_ntohs(ptr noundef %0, i32 noundef %19)
  br label %21

21:                                               ; preds = %18, %7
  %.043 = phi i32 [ %19, %18 ], [ 0, %7 ]
  %.040 = phi i16 [ %20, %18 ], [ %8, %7 ]
  %22 = icmp eq i16 %.040, 0
  br i1 %22, label %23, label %29

23:                                               ; preds = %21
  %24 = add nuw nsw i32 %.043, 8
  %25 = tail call i32 @tvb_captured_length_remaining(ptr noundef %0, i32 noundef %24)
  %26 = icmp slt i32 %25, 40
  br i1 %26, label %.thread, label %27

27:                                               ; preds = %23
  %28 = tail call zeroext i16 @tvb_get_ntohs(ptr noundef %0, i32 noundef %24)
  br label %29

29:                                               ; preds = %27, %21
  %.245 = phi i32 [ %24, %27 ], [ %.043, %21 ]
  %.2 = phi i16 [ %28, %27 ], [ %.040, %21 ]
  %.mask = and i16 %.2, -4096
  %30 = icmp eq i16 %.mask, 24576
  br i1 %30, label %31, label %.thread

31:                                               ; preds = %29
  %32 = add nuw nsw i32 %.245, 4
  %33 = tail call zeroext i16 @tvb_get_ntohs(ptr noundef %0, i32 noundef %32)
  %34 = icmp ugt i16 %33, -69
  br i1 %34, label %.thread, label %35

35:                                               ; preds = %31
  %36 = zext i16 %33 to i32
  %37 = add nuw nsw i32 %.245, 40
  %38 = tail call i32 @tvb_reported_length_remaining(ptr noundef %0, i32 noundef %37)
  %.not47 = icmp eq i32 %38, %36
  br i1 %.not47, label %39, label %.thread

39:                                               ; preds = %35
  %40 = tail call i32 @dissect_teredo(ptr noundef %0, ptr noundef %1, ptr noundef %2, ptr poison)
  br label %.thread

.thread:                                          ; preds = %10, %29, %35, %31, %23, %4, %39
  %.0 = phi i1 [ true, %39 ], [ false, %4 ], [ false, %23 ], [ false, %31 ], [ false, %35 ], [ false, %29 ], [ false, %10 ]
  ret i1 %.0
}